target datalayout = "e-m:e-p270:32:32-p271:32:32-p272:64:64-i64:64-i128:128-f80:128-n8:16:32:64-S128"
target triple = "x86_64-unknown-linux-gnu"

%"class.google::protobuf::MessageLite" = type { ptr }
%"struct.google::protobuf::internal::ArenaStringPtr" = type { ptr }
%"class.google::protobuf::internal::LogMessage" = type { i32, ptr, i32, %"class.std::__cxx11::basic_string" }
%"class.std::__cxx11::basic_string" = type { %"struct.std::__cxx11::basic_string<char>::_Alloc_hider", i64, %union.anon }
%"struct.std::__cxx11::basic_string<char>::_Alloc_hider" = type { ptr }
%union.anon = type { i64, [8 x i8] }
%"class.google::protobuf::internal::LogFinisher" = type { i8 }
%"class.net::SourceAddressTokens" = type { %"class.google::protobuf::MessageLite", %"struct.google::protobuf::internal::ArenaStringPtr", ptr, [1 x i32], i32, %"class.google::protobuf::RepeatedPtrField" }
%"class.google::protobuf::RepeatedPtrField" = type { %"class.google::protobuf::internal::RepeatedPtrFieldBase" }
%"class.google::protobuf::internal::RepeatedPtrFieldBase" = type { ptr, i32, i32, ptr }

@.str.5 = private unnamed_addr constant [155 x i8] c"generated/home/dtcxzyw/WorkSpace/Projects/compilers/llvm-opt-benchmark/bench/libquic/libquic/src/third_party/protobuf/src/google/protobuf/repeated_field.h\00", align 1
@.str.11 = private unnamed_addr constant [66 x i8] c"CHECK failed: GetArenaNoVirtual() == other->GetArenaNoVirtual(): \00", align 1

; Function Attrs: mustprogress nounwind uwtable
define linkonce_odr dso_local void @_ZSt4swapIPN6google8protobuf8internal20RepeatedPtrFieldBase3RepEENSt9enable_ifIXsr6__and_ISt6__not_ISt15__is_tuple_likeIT_EESt21is_move_constructibleIS9_ESt18is_move_assignableIS9_EEE5valueEvE4typeERS9_SI_(ptr noundef nonnull align 8 dereferenceable(8) %__a, ptr noundef nonnull align 8 dereferenceable(8) %__b) #0 comdat {
entry:
  %__a.addr = alloca ptr, align 8
  %__b.addr = alloca ptr, align 8
  %__tmp = alloca ptr, align 8
  store ptr %__a, ptr %__a.addr, align 8
  store ptr %__b, ptr %__b.addr, align 8
  %0 = load ptr, ptr %__a.addr, align 8
  %1 = load ptr, ptr %0, align 8
  store ptr %1, ptr %__tmp, align 8
  %2 = load ptr, ptr %__b.addr, align 8
  %3 = load ptr, ptr %2, align 8
  %4 = load ptr, ptr %__a.addr, align 8
  store ptr %3, ptr %4, align 8
  %5 = load ptr, ptr %__tmp, align 8
  %6 = load ptr, ptr %__b.addr, align 8
  store ptr %5, ptr %6, align 8
  ret void
}

; Function Attrs: mustprogress nounwind uwtable
define linkonce_odr dso_local noundef ptr @_ZNK6google8protobuf8internal20RepeatedPtrFieldBase17GetArenaNoVirtualEv(ptr noundef nonnull align 8 dereferenceable(24) %this) #0 comdat align 2 {
entry:
  %this.addr = alloca ptr, align 8
  store ptr %this, ptr %this.addr, align 8
  %this1 = load ptr, ptr %this.addr, align 8
  %arena_ = getelementptr inbounds %"class.google::protobuf::internal::RepeatedPtrFieldBase", ptr %this1, i32 0, i32 0
  %0 = load ptr, ptr %arena_, align 8
  ret ptr %0
}

; Function Attrs: mustprogress nounwind uwtable
define linkonce_odr dso_local void @_ZN6google8protobuf8internal20RepeatedPtrFieldBase12InternalSwapEPS2_(ptr noundef nonnull align 8 dereferenceable(24) %this, ptr noundef %other) #0 comdat align 2 {
entry:
  %this.addr = alloca ptr, align 8
  %other.addr = alloca ptr, align 8
  store ptr %this, ptr %this.addr, align 8
  store ptr %other, ptr %other.addr, align 8
  %this1 = load ptr, ptr %this.addr, align 8
  %rep_ = getelementptr inbounds %"class.google::protobuf::internal::RepeatedPtrFieldBase", ptr %this1, i32 0, i32 3
  %0 = load ptr, ptr %other.addr, align 8
  %rep_2 = getelementptr inbounds %"class.google::protobuf::internal::RepeatedPtrFieldBase", ptr %0, i32 0, i32 3
  call void @_ZSt4swapIPN6google8protobuf8internal20RepeatedPtrFieldBase3RepEENSt9enable_ifIXsr6__and_ISt6__not_ISt15__is_tuple_likeIT_EESt21is_move_constructibleIS9_ESt18is_move_assignableIS9_EEE5valueEvE4typeERS9_SI_(ptr noundef nonnull align 8 dereferenceable(8) %rep_, ptr noundef nonnull align 8 dereferenceable(8) %rep_2) #12
  %current_size_ = getelementptr inbounds %"class.google::protobuf::internal::RepeatedPtrFieldBase", ptr %this1, i32 0, i32 1
  %1 = load ptr, ptr %other.addr, align 8
  %current_size_3 = getelementptr inbounds %"class.google::protobuf::internal::RepeatedPtrFieldBase", ptr %1, i32 0, i32 1
  call void @_ZSt4swapIiENSt9enable_ifIXsr6__and_ISt6__not_ISt15__is_tuple_likeIT_EESt21is_move_constructibleIS3_ESt18is_move_assignableIS3_EEE5valueEvE4typeERS3_SC_(ptr noundef nonnull align 4 dereferenceable(4) %current_size_, ptr noundef nonnull align 4 dereferenceable(4) %current_size_3) #12
  %total_size_ = getelementptr inbounds %"class.google::protobuf::internal::RepeatedPtrFieldBase", ptr %this1, i32 0, i32 2
  %2 = load ptr, ptr %other.addr, align 8
  %total_size_4 = getelementptr inbounds %"class.google::protobuf::internal::RepeatedPtrFieldBase", ptr %2, i32 0, i32 2
  call void @_ZSt4swapIiENSt9enable_ifIXsr6__and_ISt6__not_ISt15__is_tuple_likeIT_EESt21is_move_constructibleIS3_ESt18is_move_assignableIS3_EEE5valueEvE4typeERS3_SC_(ptr noundef nonnull align 4 dereferenceable(4) %total_size_, ptr noundef nonnull align 4 dereferenceable(4) %total_size_4) #12
  ret void
}

; Function Attrs: mustprogress nounwind uwtable
define linkonce_odr dso_local noundef ptr @_ZNK6google8protobuf16RepeatedPtrFieldIN3net18SourceAddressTokenEE17GetArenaNoVirtualEv(ptr noundef nonnull align 8 dereferenceable(24) %this) #0 comdat align 2 {
entry:
  %this.addr = alloca ptr, align 8
  store ptr %this, ptr %this.addr, align 8
  %this1 = load ptr, ptr %this.addr, align 8
  %call = call noundef ptr @_ZNK6google8protobuf8internal20RepeatedPtrFieldBase17GetArenaNoVirtualEv(ptr noundef nonnull align 8 dereferenceable(24) %this1)
  ret ptr %call
}

; Function Attrs: mustprogress nounwind uwtable
define linkonce_odr dso_local void @_ZSt4swapIiENSt9enable_ifIXsr6__and_ISt6__not_ISt15__is_tuple_likeIT_EESt21is_move_constructibleIS3_ESt18is_move_assignableIS3_EEE5valueEvE4typeERS3_SC_(ptr noundef nonnull align 4 dereferenceable(4) %__a, ptr noundef nonnull align 4 dereferenceable(4) %__b) #0 comdat {
entry:
  %__a.addr = alloca ptr, align 8
  %__b.addr = alloca ptr, align 8
  %__tmp = alloca i32, align 4
  store ptr %__a, ptr %__a.addr, align 8
  store ptr %__b, ptr %__b.addr, align 8
  %0 = load ptr, ptr %__a.addr, align 8
  %1 = load i32, ptr %0, align 4
  store i32 %1, ptr %__tmp, align 4
  %2 = load ptr, ptr %__b.addr, align 8
  %3 = load i32, ptr %2, align 4
  %4 = load ptr, ptr %__a.addr, align 8
  store i32 %3, ptr %4, align 4
  %5 = load i32, ptr %__tmp, align 4
  %6 = load ptr, ptr %__b.addr, align 8
  store i32 %5, ptr %6, align 4
  ret void
}

; Function Attrs: mustprogress nounwind uwtable
define linkonce_odr dso_local void @_ZSt4swapIPNSt7__cxx1112basic_stringIcSt11char_traitsIcESaIcEEEENSt9enable_ifIXsr6__and_ISt6__not_ISt15__is_tuple_likeIT_EESt21is_move_constructibleISA_ESt18is_move_assignableISA_EEE5valueEvE4typeERSA_SJ_(ptr noundef nonnull align 8 dereferenceable(8) %__a, ptr noundef nonnull align 8 dereferenceable(8) %__b) #0 comdat {
entry:
  %__a.addr = alloca ptr, align 8
  %__b.addr = alloca ptr, align 8
  %__tmp = alloca ptr, align 8
  store ptr %__a, ptr %__a.addr, align 8
  store ptr %__b, ptr %__b.addr, align 8
  %0 = load ptr, ptr %__a.addr, align 8
  %1 = load ptr, ptr %0, align 8
  store ptr %1, ptr %__tmp, align 8
  %2 = load ptr, ptr %__b.addr, align 8
  %3 = load ptr, ptr %2, align 8
  %4 = load ptr, ptr %__a.addr, align 8
  store ptr %3, ptr %4, align 8
  %5 = load ptr, ptr %__tmp, align 8
  %6 = load ptr, ptr %__b.addr, align 8
  store ptr %5, ptr %6, align 8
  ret void
}

; Function Attrs: mustprogress nounwind uwtable
define linkonce_odr dso_local void @_ZSt4swapIjENSt9enable_ifIXsr6__and_ISt6__not_ISt15__is_tuple_likeIT_EESt21is_move_constructibleIS3_ESt18is_move_assignableIS3_EEE5valueEvE4typeERS3_SC_(ptr noundef nonnull align 4 dereferenceable(4) %__a, ptr noundef nonnull align 4 dereferenceable(4) %__b) #0 comdat {
entry:
  %__a.addr = alloca ptr, align 8
  %__b.addr = alloca ptr, align 8
  %__tmp = alloca i32, align 4
  store ptr %__a, ptr %__a.addr, align 8
  store ptr %__b, ptr %__b.addr, align 8
  %0 = load ptr, ptr %__a.addr, align 8
  %1 = load i32, ptr %0, align 4
  store i32 %1, ptr %__tmp, align 4
  %2 = load ptr, ptr %__b.addr, align 8
  %3 = load i32, ptr %2, align 4
  %4 = load ptr, ptr %__a.addr, align 8
  store i32 %3, ptr %4, align 4
  %5 = load i32, ptr %__tmp, align 4
  %6 = load ptr, ptr %__b.addr, align 8
  store i32 %5, ptr %6, align 4
  ret void
}

; Function Attrs: mustprogress uwtable
define linkonce_odr dso_local void @_ZN6google8protobuf16RepeatedPtrFieldIN3net18SourceAddressTokenEE15UnsafeArenaSwapEPS4_(ptr noundef nonnull align 8 dereferenceable(24) %this, ptr noundef %other) #1 comdat align 2 personality ptr @__gxx_personality_v0 {
entry:
  %this.addr = alloca ptr, align 8
  %other.addr = alloca ptr, align 8
  %ref.tmp = alloca %"class.google::protobuf::internal::LogMessage", align 8
  %cleanup.cond = alloca i1, align 1
  %exn.slot = alloca ptr, align 8
  %ehselector.slot = alloca i32, align 4
  %ref.tmp4 = alloca %"class.google::protobuf::internal::LogFinisher", align 1
  store ptr %this, ptr %this.addr, align 8
  store ptr %other, ptr %other.addr, align 8
  %this1 = load ptr, ptr %this.addr, align 8
  br label %while.cond

while.cond:                                       ; preds = %cleanup.done, %entry
  br i1 false, label %while.body, label %while.end

while.body:                                       ; preds = %while.cond
  %call = call noundef ptr @_ZNK6google8protobuf16RepeatedPtrFieldIN3net18SourceAddressTokenEE17GetArenaNoVirtualEv(ptr noundef nonnull align 8 dereferenceable(24) %this1)
  %0 = load ptr, ptr %other.addr, align 8
  %call2 = call noundef ptr @_ZNK6google8protobuf16RepeatedPtrFieldIN3net18SourceAddressTokenEE17GetArenaNoVirtualEv(ptr noundef nonnull align 8 dereferenceable(24) %0)
  %cmp = icmp eq ptr %call, %call2
  store i1 false, ptr %cleanup.cond, align 1
  br i1 %cmp, label %cond.true, label %cond.false

cond.true:                                        ; preds = %while.body
  br label %cond.end

cond.false:                                       ; preds = %while.body
  call void @_ZN6google8protobuf8internal10LogMessageC1ENS0_8LogLevelEPKci(ptr noundef nonnull align 8 dereferenceable(56) %ref.tmp, i32 noundef 3, ptr noundef @.str.5, i32 noundef 1985)
  store i1 true, ptr %cleanup.cond, align 1
  %call3 = invoke noundef nonnull align 8 dereferenceable(56) ptr @_ZN6google8protobuf8internal10LogMessagelsEPKc(ptr noundef nonnull align 8 dereferenceable(56) %ref.tmp, ptr noundef @.str.11)
          to label %invoke.cont unwind label %lpad

invoke.cont:                                      ; preds = %cond.false
  invoke void @_ZN6google8protobuf8internal11LogFinisheraSERNS1_10LogMessageE(ptr noundef nonnull align 1 dereferenceable(1) %ref.tmp4, ptr noundef nonnull align 8 dereferenceable(56) %call3)
          to label %invoke.cont5 unwind label %lpad

invoke.cont5:                                     ; preds = %invoke.cont
  br label %cond.end

cond.end:                                         ; preds = %invoke.cont5, %cond.true
  %cleanup.is_active = load i1, ptr %cleanup.cond, align 1
  br i1 %cleanup.is_active, label %cleanup.action, label %cleanup.done

cleanup.action:                                   ; preds = %cond.end
  call void @_ZN6google8protobuf8internal10LogMessageD1Ev(ptr noundef nonnull align 8 dereferenceable(56) %ref.tmp) #12
  br label %cleanup.done

cleanup.done:                                     ; preds = %cleanup.action, %cond.end
  br label %while.cond, !llvm.loop !11

lpad:                                             ; preds = %invoke.cont, %cond.false
  %1 = landingpad { ptr, i32 }
          cleanup
  %2 = extractvalue { ptr, i32 } %1, 0
  store ptr %2, ptr %exn.slot, align 8
  %3 = extractvalue { ptr, i32 } %1, 1
  store i32 %3, ptr %ehselector.slot, align 4
  %cleanup.is_active6 = load i1, ptr %cleanup.cond, align 1
  br i1 %cleanup.is_active6, label %cleanup.action7, label %cleanup.done8

cleanup.action7:                                  ; preds = %lpad
  call void @_ZN6google8protobuf8internal10LogMessageD1Ev(ptr noundef nonnull align 8 dereferenceable(56) %ref.tmp) #12
  br label %cleanup.done8

cleanup.done8:                                    ; preds = %cleanup.action7, %lpad
  br label %eh.resume

while.end:                                        ; preds = %while.cond
  %4 = load ptr, ptr %other.addr, align 8
  %cmp9 = icmp eq ptr %this1, %4
  br i1 %cmp9, label %if.then, label %if.end

if.then:                                          ; preds = %while.end
  br label %return

if.end:                                           ; preds = %while.end
  %5 = load ptr, ptr %other.addr, align 8
  call void @_ZN6google8protobuf8internal20RepeatedPtrFieldBase12InternalSwapEPS2_(ptr noundef nonnull align 8 dereferenceable(24) %this1, ptr noundef %5)
  br label %return

return:                                           ; preds = %if.end, %if.then
  ret void

eh.resume:                                        ; preds = %cleanup.done8
  %exn = load ptr, ptr %exn.slot, align 8
  %sel = load i32, ptr %ehselector.slot, align 4
  %lpad.val = insertvalue { ptr, i32 } poison, ptr %exn, 0
  %lpad.val10 = insertvalue { ptr, i32 } %lpad.val, i32 %sel, 1
  resume { ptr, i32 } %lpad.val10
}

; Function Attrs: mustprogress uwtable
define dso_local void @_ZN3net19SourceAddressTokens12InternalSwapEPS0_(ptr noundef nonnull align 8 dereferenceable(56) %this, ptr noundef %other) #1 align 2 {
entry:
  %this.addr.i = alloca ptr, align 8
  %other.addr.i = alloca ptr, align 8
  %this.addr = alloca ptr, align 8
  %other.addr = alloca ptr, align 8
  store ptr %this, ptr %this.addr, align 8
  store ptr %other, ptr %other.addr, align 8
  %this1 = load ptr, ptr %this.addr, align 8
  %tokens_ = getelementptr inbounds %"class.net::SourceAddressTokens", ptr %this1, i32 0, i32 5
  %0 = load ptr, ptr %other.addr, align 8
  %tokens_2 = getelementptr inbounds %"class.net::SourceAddressTokens", ptr %0, i32 0, i32 5
  call void @_ZN6google8protobuf16RepeatedPtrFieldIN3net18SourceAddressTokenEE15UnsafeArenaSwapEPS4_(ptr noundef nonnull align 8 dereferenceable(24) %tokens_, ptr noundef %tokens_2)
  %_has_bits_ = getelementptr inbounds %"class.net::SourceAddressTokens", ptr %this1, i32 0, i32 3
  %arrayidx = getelementptr inbounds [1 x i32], ptr %_has_bits_, i64 0, i64 0
  %1 = load ptr, ptr %other.addr, align 8
  %_has_bits_3 = getelementptr inbounds %"class.net::SourceAddressTokens", ptr %1, i32 0, i32 3
  %arrayidx4 = getelementptr inbounds [1 x i32], ptr %_has_bits_3, i64 0, i64 0
  call void @_ZSt4swapIjENSt9enable_ifIXsr6__and_ISt6__not_ISt15__is_tuple_likeIT_EESt21is_move_constructibleIS3_ESt18is_move_assignableIS3_EEE5valueEvE4typeERS3_SC_(ptr noundef nonnull align 4 dereferenceable(4) %arrayidx, ptr noundef nonnull align 4 dereferenceable(4) %arrayidx4) #12
  %_unknown_fields_ = getelementptr inbounds %"class.net::SourceAddressTokens", ptr %this1, i32 0, i32 1
  %2 = load ptr, ptr %other.addr, align 8
  %_unknown_fields_5 = getelementptr inbounds %"class.net::SourceAddressTokens", ptr %2, i32 0, i32 1
  store ptr %_unknown_fields_, ptr %this.addr.i, align 8
  store ptr %_unknown_fields_5, ptr %other.addr.i, align 8
  %this1.i = load ptr, ptr %this.addr.i, align 8
  %3 = load ptr, ptr %other.addr.i, align 8
  call void @_ZSt4swapIPNSt7__cxx1112basic_stringIcSt11char_traitsIcESaIcEEEENSt9enable_ifIXsr6__and_ISt6__not_ISt15__is_tuple_likeIT_EESt21is_move_constructibleISA_ESt18is_move_assignableISA_EEE5valueEvE4typeERSA_SJ_(ptr noundef nonnull align 8 dereferenceable(8) %this1.i, ptr noundef nonnull align 8 dereferenceable(8) %3) #12
  %_cached_size_ = getelementptr inbounds %"class.net::SourceAddressTokens", ptr %this1, i32 0, i32 4
  %4 = load ptr, ptr %other.addr, align 8
  %_cached_size_6 = getelementptr inbounds %"class.net::SourceAddressTokens", ptr %4, i32 0, i32 4
  call void @_ZSt4swapIiENSt9enable_ifIXsr6__and_ISt6__not_ISt15__is_tuple_likeIT_EESt21is_move_constructibleIS3_ESt18is_move_assignableIS3_EEE5valueEvE4typeERS3_SC_(ptr noundef nonnull align 4 dereferenceable(4) %_cached_size_, ptr noundef nonnull align 4 dereferenceable(4) %_cached_size_6) #12
  ret void
}

; Function Attrs: mustprogress uwtable
define dso_local void @_ZN3net19SourceAddressTokens4SwapEPS0_(ptr noundef nonnull align 8 dereferenceable(56) %this, ptr noundef %other) #1 align 2 {
entry:
  %this.addr = alloca ptr, align 8
  %other.addr = alloca ptr, align 8
  store ptr %this, ptr %this.addr, align 8
  store ptr %other, ptr %other.addr, align 8
  %this1 = load ptr, ptr %this.addr, align 8
  %0 = load ptr, ptr %other.addr, align 8
  %cmp = icmp eq ptr %0, %this1
  br i1 %cmp, label %if.then, label %if.end

if.then:                                          ; preds = %entry
  br label %return

if.end:                                           ; preds = %entry
  %1 = load ptr, ptr %other.addr, align 8
  call void @_ZN3net19SourceAddressTokens12InternalSwapEPS0_(ptr noundef nonnull align 8 dereferenceable(56) %this1, ptr noundef %1)
  br label %return

return:                                           ; preds = %if.end, %if.then
  ret void
}