; Function Attrs: mustprogress nofree norecurse nosync nounwind willreturn memory(argmem: readwrite) uwtable
define dso_local void @_ZN3net19SourceAddressTokens4SwapEPS0_(ptr noundef nonnull align 8 dereferenceable(56) %this, ptr noundef %other) local_unnamed_addr #11 align 2 personality ptr @__gxx_personality_v0 {
entry:
  %cmp = icmp eq ptr %other, %this
  br i1 %cmp, label %return, label %_ZN3net19SourceAddressTokens12InternalSwapEPS0_.exit

_ZN3net19SourceAddressTokens12InternalSwapEPS0_.exit: ; preds = %entry
  %rep_.i.i.i = getelementptr inbounds i8, ptr %this, i64 48
  %rep_2.i.i.i = getelementptr inbounds i8, ptr %other, i64 48
  %0 = load ptr, ptr %rep_.i.i.i, align 8
  %1 = load ptr, ptr %rep_2.i.i.i, align 8
  store ptr %1, ptr %rep_.i.i.i, align 8
  store ptr %0, ptr %rep_2.i.i.i, align 8
  %current_size_.i.i.i = getelementptr inbounds i8, ptr %this, i64 40
  %current_size_3.i.i.i = getelementptr inbounds i8, ptr %other, i64 40
  %2 = load i32, ptr %current_size_.i.i.i, align 8
  %3 = load i32, ptr %current_size_3.i.i.i, align 4
  store i32 %3, ptr %current_size_.i.i.i, align 8
  store i32 %2, ptr %current_size_3.i.i.i, align 4
  %total_size_.i.i.i = getelementptr inbounds i8, ptr %this, i64 44
  %total_size_4.i.i.i = getelementptr inbounds i8, ptr %other, i64 44
  %4 = load i32, ptr %total_size_.i.i.i, align 4
  %5 = load i32, ptr %total_size_4.i.i.i, align 4
  store i32 %5, ptr %total_size_.i.i.i, align 4
  store i32 %4, ptr %total_size_4.i.i.i, align 4
  %_has_bits_.i = getelementptr inbounds i8, ptr %this, i64 24
  %_has_bits_3.i = getelementptr inbounds i8, ptr %other, i64 24
  %6 = load i32, ptr %_has_bits_.i, align 8
  %7 = load i32, ptr %_has_bits_3.i, align 4
  store i32 %7, ptr %_has_bits_.i, align 8
  store i32 %6, ptr %_has_bits_3.i, align 4
  %_unknown_fields_.i = getelementptr inbounds i8, ptr %this, i64 8
  %_unknown_fields_5.i = getelementptr inbounds i8, ptr %other, i64 8
  %8 = load ptr, ptr %_unknown_fields_.i, align 8
  %9 = load ptr, ptr %_unknown_fields_5.i, align 8
  store ptr %9, ptr %_unknown_fields_.i, align 8
  store ptr %8, ptr %_unknown_fields_5.i, align 8
  %_cached_size_.i = getelementptr inbounds i8, ptr %this, i64 28
  %_cached_size_6.i = getelementptr inbounds i8, ptr %other, i64 28
  %10 = load i32, ptr %_cached_size_.i, align 4
  %11 = load i32, ptr %_cached_size_6.i, align 4
  store i32 %11, ptr %_cached_size_.i, align 4
  store i32 %10, ptr %_cached_size_6.i, align 4
  br label %return

return:                                           ; preds = %entry, %_ZN3net19SourceAddressTokens12InternalSwapEPS0_.exit
  ret void
}